; Function Attrs: mustprogress uwtable
define noundef zeroext i1 @_ZN3re212re2_internal5ParseINSt7__cxx1112basic_stringIcSt11char_traitsIcESaIcEEEEEbPKcmPT_(ptr noundef %str, i64 noundef %n, ptr noundef %dest) local_unnamed_addr #2 {
entry:
  %cmp = icmp eq ptr %dest, null
  br i1 %cmp, label %return, label %if.end

if.end:                                           ; preds = %entry
  %call = tail call noundef nonnull align 8 dereferenceable(32) ptr @_ZNSt7__cxx1112basic_stringIcSt11char_traitsIcESaIcEE6assignEPKcm(ptr noundef nonnull align 8 dereferenceable(32) %dest, ptr noundef %str, i64 noundef %n)
  br label %return

return:                                           ; preds = %entry, %if.end
  ret i1 true
}